target datalayout = "e-m:e-p270:32:32-p271:32:32-p272:64:64-i64:64-i128:128-f80:128-n8:16:32:64-S128"
target triple = "x86_64-pc-linux-gnu"

%struct._object = type { %union.anon.41, ptr }
%union.anon.41 = type { i64 }
%struct.PyVarObject = type { %struct._object, i64 }
%struct._ts = type { ptr, ptr, ptr, i64, %struct.anon.805, i32, i32, i32, i32, i32, i32, i32, i32, ptr, ptr, ptr, ptr, ptr, ptr, ptr, ptr, i32, ptr, i64, i64, ptr, i64, i32, ptr, ptr, ptr, i64, i64, ptr, ptr, ptr, %struct._err_stackitem, ptr, i64, ptr, ptr }
%struct.anon.805 = type { i32 }
%struct._err_stackitem = type { ptr, ptr }
%struct.PyCodeObject = type { %struct.PyVarObject, ptr, ptr, ptr, i32, i32, i32, i32, i32, i32, i32, i32, i32, i32, i32, i32, ptr, ptr, ptr, ptr, ptr, ptr, ptr, ptr, ptr, i64, ptr, i64, i32, ptr, [1 x i8] }
%struct.anon.42 = type { i32, i32 }
%struct._PyInterpreterFrame = type { %union._PyStackRef, ptr, %union._PyStackRef, ptr, ptr, ptr, ptr, ptr, ptr, i16, i8, i8, [1 x %union._PyStackRef] }
%union._PyStackRef = type { i64 }

@PyExc_RuntimeError = external global ptr, align 8
@PyExc_StopIteration = external global ptr, align 8
@.str.28 = private unnamed_addr constant [31 x i8] c"generator raised StopIteration\00", align 1
@.str.29 = private unnamed_addr constant [37 x i8] c"async generator raised StopIteration\00", align 1
@.str.30 = private unnamed_addr constant [31 x i8] c"coroutine raised StopIteration\00", align 1
@PyExc_StopAsyncIteration = external global ptr, align 8
@.str.31 = private unnamed_addr constant [42 x i8] c"async generator raised StopAsyncIteration\00", align 1

; Function Attrs: alwaysinline nounwind uwtable
define internal void @Py_INCREF(ptr noundef %0) #3 {
  %2 = alloca ptr, align 8
  %3 = alloca i32, align 4
  %4 = alloca i32, align 4
  store ptr %0, ptr %2, align 8, !tbaa !9
  call void @llvm.lifetime.start.p0(i64 4, ptr %3) #6
  %5 = load ptr, ptr %2, align 8, !tbaa !9
  %6 = getelementptr inbounds nuw %struct._object, ptr %5, i32 0, i32 0
  %7 = getelementptr inbounds nuw %struct.anon.42, ptr %6, i32 0, i32 0
  %8 = load i32, ptr %7, align 8, !tbaa !41
  store i32 %8, ptr %3, align 4, !tbaa !23
  %9 = load i32, ptr %3, align 4, !tbaa !23
  %10 = icmp slt i32 %9, 0
  br i1 %10, label %11, label %12

11:                                               ; preds = %1
  store i32 1, ptr %4, align 4
  br label %18

12:                                               ; preds = %1
  %13 = load i32, ptr %3, align 4, !tbaa !23
  %14 = add i32 %13, 1
  %15 = load ptr, ptr %2, align 8, !tbaa !9
  %16 = getelementptr inbounds nuw %struct._object, ptr %15, i32 0, i32 0
  %17 = getelementptr inbounds nuw %struct.anon.42, ptr %16, i32 0, i32 0
  store i32 %14, ptr %17, align 8, !tbaa !41
  store i32 0, ptr %4, align 4
  br label %18

18:                                               ; preds = %12, %11
  call void @llvm.lifetime.end.p0(i64 4, ptr %3) #6
  %19 = load i32, ptr %4, align 4
  switch i32 %19, label %21 [
    i32 0, label %20
    i32 1, label %20
  ]

20:                                               ; preds = %18, %18
  ret void

21:                                               ; preds = %18
  unreachable
}

; Function Attrs: alwaysinline nounwind uwtable
define internal i32 @_Py_IsImmortal(ptr noundef %0) #3 {
  %2 = alloca ptr, align 8
  store ptr %0, ptr %2, align 8, !tbaa !9
  %3 = load ptr, ptr %2, align 8, !tbaa !9
  %4 = getelementptr inbounds nuw %struct._object, ptr %3, i32 0, i32 0
  %5 = getelementptr inbounds nuw %struct.anon.42, ptr %4, i32 0, i32 0
  %6 = load i32, ptr %5, align 8, !tbaa !41
  %7 = icmp slt i32 %6, 0
  %8 = zext i1 %7 to i32
  ret i32 %8
}

; Function Attrs: inlinehint nounwind uwtable
define internal ptr @_Py_NewRef(ptr noundef %0) #4 {
  %2 = alloca ptr, align 8
  store ptr %0, ptr %2, align 8, !tbaa !9
  %3 = load ptr, ptr %2, align 8, !tbaa !9
  call void @Py_INCREF(ptr noundef %3)
  %4 = load ptr, ptr %2, align 8, !tbaa !9
  ret ptr %4
}

; Function Attrs: alwaysinline nounwind uwtable
define internal void @Py_DECREF(ptr noundef %0) #3 {
  %2 = alloca ptr, align 8
  store ptr %0, ptr %2, align 8, !tbaa !9
  %3 = load ptr, ptr %2, align 8, !tbaa !9
  %4 = call i32 @_Py_IsImmortal(ptr noundef %3)
  %5 = icmp ne i32 %4, 0
  br i1 %5, label %6, label %7

6:                                                ; preds = %1
  br label %16

7:                                                ; preds = %1
  %8 = load ptr, ptr %2, align 8, !tbaa !9
  %9 = getelementptr inbounds nuw %struct._object, ptr %8, i32 0, i32 0
  %10 = getelementptr inbounds nuw %struct.anon.42, ptr %9, i32 0, i32 0
  %11 = load i32, ptr %10, align 8, !tbaa !41
  %12 = add i32 %11, -1
  store i32 %12, ptr %10, align 8, !tbaa !41
  %13 = icmp eq i32 %12, 0
  br i1 %13, label %14, label %16

14:                                               ; preds = %7
  %15 = load ptr, ptr %2, align 8, !tbaa !9
  call void @_Py_Dealloc(ptr noundef %15)
  br label %16

16:                                               ; preds = %6, %14, %7
  ret void
}

; Function Attrs: inlinehint nounwind uwtable
define internal ptr @_PyFrame_GetCode(ptr noundef %0) #4 {
  %2 = alloca ptr, align 8
  %3 = alloca ptr, align 8
  store ptr %0, ptr %2, align 8, !tbaa !22
  call void @llvm.lifetime.start.p0(i64 8, ptr %3) #6
  %4 = load ptr, ptr %2, align 8, !tbaa !22
  %5 = getelementptr inbounds nuw %struct._PyInterpreterFrame, ptr %4, i32 0, i32 0
  %6 = load i64, ptr %5, align 8, !tbaa !41
  %7 = inttoptr i64 %6 to ptr
  store ptr %7, ptr %3, align 8, !tbaa !9
  %8 = load ptr, ptr %3, align 8, !tbaa !9
  call void @llvm.lifetime.end.p0(i64 8, ptr %3) #6
  ret ptr %8
}

; Function Attrs: nounwind uwtable
define internal ptr @stopiteration_error(ptr noundef %0, ptr noundef %1) #0 {
  %3 = alloca ptr, align 8
  %4 = alloca ptr, align 8
  %5 = alloca ptr, align 8
  %6 = alloca ptr, align 8
  %7 = alloca ptr, align 8
  %8 = alloca ptr, align 8
  %9 = alloca i32, align 4
  %10 = alloca ptr, align 8
  store ptr %0, ptr %4, align 8, !tbaa !4
  store ptr %1, ptr %5, align 8, !tbaa !9
  call void @llvm.lifetime.start.p0(i64 8, ptr %6) #6
  %11 = load ptr, ptr %4, align 8, !tbaa !4
  %12 = getelementptr inbounds nuw %struct._ts, ptr %11, i32 0, i32 13
  %13 = load ptr, ptr %12, align 8, !tbaa !11
  store ptr %13, ptr %6, align 8, !tbaa !22
  call void @llvm.lifetime.start.p0(i64 8, ptr %7) #6
  store ptr null, ptr %7, align 8, !tbaa !24
  %14 = load ptr, ptr %5, align 8, !tbaa !9
  %15 = load ptr, ptr @PyExc_StopIteration, align 8, !tbaa !9
  %16 = call i32 @PyErr_GivenExceptionMatches(ptr noundef %14, ptr noundef %15)
  %17 = icmp ne i32 %16, 0
  br i1 %17, label %18, label %36

18:                                               ; preds = %2
  store ptr @.str.28, ptr %7, align 8, !tbaa !24
  %19 = load ptr, ptr %6, align 8, !tbaa !22
  %20 = call ptr @_PyFrame_GetCode(ptr noundef %19)
  %21 = getelementptr inbounds nuw %struct.PyCodeObject, ptr %20, i32 0, i32 4
  %22 = load i32, ptr %21, align 8, !tbaa !26
  %23 = and i32 %22, 512
  %24 = icmp ne i32 %23, 0
  br i1 %24, label %25, label %26

25:                                               ; preds = %18
  store ptr @.str.29, ptr %7, align 8, !tbaa !24
  br label %35

26:                                               ; preds = %18
  %27 = load ptr, ptr %6, align 8, !tbaa !22
  %28 = call ptr @_PyFrame_GetCode(ptr noundef %27)
  %29 = getelementptr inbounds nuw %struct.PyCodeObject, ptr %28, i32 0, i32 4
  %30 = load i32, ptr %29, align 8, !tbaa !26
  %31 = and i32 %30, 128
  %32 = icmp ne i32 %31, 0
  br i1 %32, label %33, label %34

33:                                               ; preds = %26
  store ptr @.str.30, ptr %7, align 8, !tbaa !24
  br label %34

34:                                               ; preds = %33, %26
  br label %35

35:                                               ; preds = %34, %25
  br label %50

36:                                               ; preds = %2
  %37 = load ptr, ptr %6, align 8, !tbaa !22
  %38 = call ptr @_PyFrame_GetCode(ptr noundef %37)
  %39 = getelementptr inbounds nuw %struct.PyCodeObject, ptr %38, i32 0, i32 4
  %40 = load i32, ptr %39, align 8, !tbaa !26
  %41 = and i32 %40, 512
  %42 = icmp ne i32 %41, 0
  br i1 %42, label %43, label %49

43:                                               ; preds = %36
  %44 = load ptr, ptr %5, align 8, !tbaa !9
  %45 = load ptr, ptr @PyExc_StopAsyncIteration, align 8, !tbaa !9
  %46 = call i32 @PyErr_GivenExceptionMatches(ptr noundef %44, ptr noundef %45)
  %47 = icmp ne i32 %46, 0
  br i1 %47, label %48, label %49

48:                                               ; preds = %43
  store ptr @.str.31, ptr %7, align 8, !tbaa !24
  br label %49

49:                                               ; preds = %48, %43, %36
  br label %50

50:                                               ; preds = %49, %35
  %51 = load ptr, ptr %7, align 8, !tbaa !24
  %52 = icmp ne ptr %51, null
  br i1 %52, label %53, label %80

53:                                               ; preds = %50
  call void @llvm.lifetime.start.p0(i64 8, ptr %8) #6
  %54 = load ptr, ptr %7, align 8, !tbaa !24
  %55 = load ptr, ptr %7, align 8, !tbaa !24
  %56 = call i64 @strlen(ptr noundef %55) #7
  %57 = call ptr @_PyUnicode_FromASCII(ptr noundef %54, i64 noundef %56)
  store ptr %57, ptr %8, align 8, !tbaa !9
  %58 = load ptr, ptr %8, align 8, !tbaa !9
  %59 = icmp eq ptr %58, null
  br i1 %59, label %60, label %61

60:                                               ; preds = %53
  store ptr null, ptr %3, align 8
  store i32 1, ptr %9, align 4
  br label %79

61:                                               ; preds = %53
  call void @llvm.lifetime.start.p0(i64 8, ptr %10) #6
  %62 = load ptr, ptr @PyExc_RuntimeError, align 8, !tbaa !9
  %63 = load ptr, ptr %8, align 8, !tbaa !9
  %64 = call ptr @PyObject_CallOneArg(ptr noundef %62, ptr noundef %63)
  store ptr %64, ptr %10, align 8, !tbaa !9
  %65 = load ptr, ptr %10, align 8, !tbaa !9
  %66 = icmp eq ptr %65, null
  br i1 %66, label %67, label %69

67:                                               ; preds = %61
  %68 = load ptr, ptr %8, align 8, !tbaa !9
  call void @Py_DECREF(ptr noundef %68)
  store ptr null, ptr %3, align 8
  store i32 1, ptr %9, align 4
  br label %78

69:                                               ; preds = %61
  %70 = load ptr, ptr %10, align 8, !tbaa !9
  %71 = load ptr, ptr %5, align 8, !tbaa !9
  %72 = call ptr @_Py_NewRef(ptr noundef %71)
  call void @PyException_SetCause(ptr noundef %70, ptr noundef %72)
  %73 = load ptr, ptr %10, align 8, !tbaa !9
  %74 = load ptr, ptr %5, align 8, !tbaa !9
  %75 = call ptr @_Py_NewRef(ptr noundef %74)
  call void @PyException_SetContext(ptr noundef %73, ptr noundef %75)
  %76 = load ptr, ptr %8, align 8, !tbaa !9
  call void @Py_DECREF(ptr noundef %76)
  %77 = load ptr, ptr %10, align 8, !tbaa !9
  store ptr %77, ptr %3, align 8
  store i32 1, ptr %9, align 4
  br label %78

78:                                               ; preds = %69, %67
  call void @llvm.lifetime.end.p0(i64 8, ptr %10) #6
  br label %79

79:                                               ; preds = %78, %60
  call void @llvm.lifetime.end.p0(i64 8, ptr %8) #6
  br label %83

80:                                               ; preds = %50
  %81 = load ptr, ptr %5, align 8, !tbaa !9
  %82 = call ptr @_Py_NewRef(ptr noundef %81)
  store ptr %82, ptr %3, align 8
  store i32 1, ptr %9, align 4
  br label %83

83:                                               ; preds = %80, %79
  call void @llvm.lifetime.end.p0(i64 8, ptr %7) #6
  call void @llvm.lifetime.end.p0(i64 8, ptr %6) #6
  %84 = load ptr, ptr %3, align 8
  ret ptr %84
}