; Function Attrs: nounwind uwtable
define internal ptr @stopiteration_error(ptr noundef readonly captures(none) %0, ptr noundef %1) #0 {
  %3 = getelementptr inbounds nuw i8, ptr %0, i64 72
  %4 = load ptr, ptr %3, align 8, !tbaa !9
  %5 = load ptr, ptr @PyExc_StopIteration, align 8, !tbaa !4
  %6 = tail call i32 @PyErr_GivenExceptionMatches(ptr noundef %1, ptr noundef %5) #4
  %.not = icmp eq i32 %6, 0
  %.val35 = load i64, ptr %4, align 8, !tbaa !21
  %7 = inttoptr i64 %.val35 to ptr
  %8 = getelementptr inbounds nuw i8, ptr %7, i64 48
  %9 = load i32, ptr %8, align 8, !tbaa !36
  %10 = and i32 %9, 512
  %.not24 = icmp eq i32 %10, 0
  br i1 %.not, label %14, label %11

11:                                               ; preds = %2
  br i1 %.not24, label %12, label %.thread

12:                                               ; preds = %11
  %13 = and i32 %9, 128
  %.not27 = icmp eq i32 %13, 0
  %spec.select = select i1 %.not27, ptr @.str.28, ptr @.str.30
  br label %.thread

14:                                               ; preds = %2
  br i1 %.not24, label %.thread41, label %15

15:                                               ; preds = %14
  %16 = load ptr, ptr @PyExc_StopAsyncIteration, align 8, !tbaa !4
  %17 = tail call i32 @PyErr_GivenExceptionMatches(ptr noundef %1, ptr noundef %16) #4
  %.not25 = icmp eq i32 %17, 0
  br i1 %.not25, label %.thread41, label %.thread

.thread:                                          ; preds = %12, %11, %15
  %.02140 = phi ptr [ @.str.31, %15 ], [ %spec.select, %12 ], [ @.str.29, %11 ]
  %18 = tail call i64 @strlen(ptr noundef nonnull dereferenceable(1) %.02140) #5
  %19 = tail call ptr @_PyUnicode_FromASCII(ptr noundef nonnull %.02140, i64 noundef %18) #4
  %20 = icmp eq ptr %19, null
  br i1 %20, label %Py_DECREF.exit, label %21

21:                                               ; preds = %.thread
  %22 = load ptr, ptr @PyExc_RuntimeError, align 8, !tbaa !4
  %23 = tail call ptr @PyObject_CallOneArg(ptr noundef %22, ptr noundef nonnull %19) #4
  %24 = icmp eq ptr %23, null
  br i1 %24, label %25, label %31

25:                                               ; preds = %21
  %26 = load i32, ptr %19, align 8, !tbaa !21
  %.not.i = icmp sgt i32 %26, -1
  br i1 %.not.i, label %27, label %Py_DECREF.exit

27:                                               ; preds = %25
  %28 = add nsw i32 %26, -1
  store i32 %28, ptr %19, align 8, !tbaa !21
  %29 = icmp eq i32 %28, 0
  br i1 %29, label %30, label %Py_DECREF.exit

30:                                               ; preds = %27
  tail call void @_Py_Dealloc(ptr noundef nonnull %19) #4
  br label %Py_DECREF.exit

31:                                               ; preds = %21
  %32 = load i32, ptr %1, align 8, !tbaa !21
  %33 = icmp slt i32 %32, 0
  br i1 %33, label %_Py_NewRef.exit, label %34

34:                                               ; preds = %31
  %35 = add nuw i32 %32, 1
  store i32 %35, ptr %1, align 8, !tbaa !21
  br label %_Py_NewRef.exit

_Py_NewRef.exit:                                  ; preds = %31, %34
  tail call void @PyException_SetCause(ptr noundef nonnull %23, ptr noundef nonnull %1) #4
  %36 = load i32, ptr %1, align 8, !tbaa !21
  %37 = icmp slt i32 %36, 0
  br i1 %37, label %_Py_NewRef.exit36, label %38

38:                                               ; preds = %_Py_NewRef.exit
  %39 = add nuw i32 %36, 1
  store i32 %39, ptr %1, align 8, !tbaa !21
  br label %_Py_NewRef.exit36

_Py_NewRef.exit36:                                ; preds = %_Py_NewRef.exit, %38
  tail call void @PyException_SetContext(ptr noundef nonnull %23, ptr noundef nonnull %1) #4
  %40 = load i32, ptr %19, align 8, !tbaa !21
  %.not.i31 = icmp sgt i32 %40, -1
  br i1 %.not.i31, label %41, label %Py_DECREF.exit

41:                                               ; preds = %_Py_NewRef.exit36
  %42 = add nsw i32 %40, -1
  store i32 %42, ptr %19, align 8, !tbaa !21
  %43 = icmp eq i32 %42, 0
  br i1 %43, label %44, label %Py_DECREF.exit

44:                                               ; preds = %41
  tail call void @_Py_Dealloc(ptr noundef nonnull %19) #4
  br label %Py_DECREF.exit

.thread41:                                        ; preds = %14, %15
  %45 = load i32, ptr %1, align 8, !tbaa !21
  %46 = icmp slt i32 %45, 0
  br i1 %46, label %Py_DECREF.exit, label %47

47:                                               ; preds = %.thread41
  %48 = add nuw i32 %45, 1
  store i32 %48, ptr %1, align 8, !tbaa !21
  br label %Py_DECREF.exit

Py_DECREF.exit:                                   ; preds = %47, %.thread41, %44, %41, %_Py_NewRef.exit36, %30, %27, %25, %.thread
  %.2 = phi ptr [ null, %.thread ], [ null, %25 ], [ null, %27 ], [ null, %30 ], [ %23, %_Py_NewRef.exit36 ], [ %23, %41 ], [ %23, %44 ], [ %1, %.thread41 ], [ %1, %47 ]
  ret ptr %.2
}